; Function Attrs: mustprogress uwtable
define dso_local void @_ZN7doctest6detail8filldataIPKvE4fillEPSoS3_(ptr noundef %0, ptr noundef %1) local_unnamed_addr #8 align 2 {
  %.not = icmp eq ptr %1, null
  br i1 %.not, label %5, label %3

3:                                                ; preds = %2
  %4 = tail call noundef nonnull align 8 dereferenceable(8) ptr @_ZNSo9_M_insertIPKvEERSoT_(ptr noundef nonnull align 8 dereferenceable(8) %0, ptr noundef nonnull %1)
  br label %7

5:                                                ; preds = %2
  %6 = tail call noundef nonnull align 8 dereferenceable(8) ptr @_ZSt16__ostream_insertIcSt11char_traitsIcEERSt13basic_ostreamIT_T0_ES6_PKS3_l(ptr noundef nonnull align 8 dereferenceable(8) %0, ptr noundef nonnull @.str.54, i64 noundef 7)
  br label %7

7:                                                ; preds = %5, %3
  ret void
}